target datalayout = "e-m:e-p270:32:32-p271:32:32-p272:64:64-i64:64-i128:128-f80:128-n8:16:32:64-S128"
target triple = "x86_64-unknown-linux-gnu"

%struct.QTailQLink = type { ptr, ptr }
%struct.MSGUID = type { i32, i16, i16, [8 x i8] }
%struct.BDRVVHDXState = type <{ %struct.CoMutex, i32, [4 x i8], [2 x ptr], %struct.VHDXRegionTableHeader, %struct.VHDXRegionTableEntry, %struct.VHDXRegionTableEntry, %struct.VHDXMetadataTableHeader, %struct.VHDXMetadataEntries, %struct.VHDXFileParameters, [2 x i8], i32, i32, i32, i32, [4 x i8], i64, i32, i32, i64, i32, i32, i32, [4 x i8], ptr, i64, i8, %struct.MSGUID, [7 x i8], %struct.VHDXLogEntries, %struct.VHDXParentLocatorHeader, [4 x i8], ptr, ptr, i8, [7 x i8], %struct.anon.1 }>
%struct.CoMutex = type { i32, ptr, %struct.anon.0, %struct.anon.0, i32, i32, ptr }
%struct.anon.0 = type { ptr }
%struct.VHDXRegionTableHeader = type { i32, i32, i32, i32 }
%struct.VHDXRegionTableEntry = type { %struct.MSGUID, i64, i32, i32 }
%struct.VHDXMetadataTableHeader = type { i64, i16, i16, [5 x i32] }
%struct.VHDXMetadataEntries = type <{ %struct.VHDXMetadataTableEntry, %struct.VHDXMetadataTableEntry, %struct.VHDXMetadataTableEntry, %struct.VHDXMetadataTableEntry, %struct.VHDXMetadataTableEntry, %struct.VHDXMetadataTableEntry, i16 }>
%struct.VHDXMetadataTableEntry = type { %struct.MSGUID, i32, i32, i32, i32 }
%struct.VHDXFileParameters = type { i32, i32 }
%struct.VHDXLogEntries = type { i64, i64, i32, i32, ptr, ptr, i64, i32 }
%struct.VHDXParentLocatorHeader = type { %struct.MSGUID, i16, i16 }
%struct.anon.1 = type { ptr }
%struct.BlockDriverState = type { i32, i8, i8, i8, i8, i8, ptr, ptr, ptr, %struct.anon.2, i8, [4096 x i8], [4096 x i8], [4096 x i8], [16 x i8], ptr, [4096 x i8], %struct.BlockLimits, i32, i32, i32, i32, [32 x i8], %union.anon.3, %union.anon.4, %union.anon.5, i32, [16 x %struct.anon.6], ptr, %struct.anon.7, ptr, ptr, %struct.anon.8, ptr, ptr, i32, ptr, i64, i64, %struct.QemuMutex, %struct.anon.9, %struct.Stat64, i32, i32, i32, i32, i32, i32, %struct.QemuMutex, %struct.anon.10, %struct.CoQueue, i8, i32, i8, %struct.CoMutex, ptr, ptr }
%struct.anon.2 = type { ptr }
%struct.BlockLimits = type { i32, i64, i32, i64, i32, i32, i32, i64, i32, i64, i64, i32, i8, i32, i32, i32, i32, i32, i32, i32 }
%union.anon.3 = type { %struct.QTailQLink }
%union.anon.4 = type { %struct.QTailQLink }
%union.anon.5 = type { %struct.QTailQLink }
%struct.anon.6 = type { ptr }
%struct.anon.7 = type { ptr }
%struct.anon.8 = type { ptr }
%struct.anon.9 = type { ptr }
%struct.Stat64 = type { i64 }
%struct.QemuMutex = type { %union.pthread_mutex_t, i8 }
%union.pthread_mutex_t = type { %struct.__pthread_mutex_s }
%struct.__pthread_mutex_s = type { i32, i32, i32, i32, i32, i16, i16, %struct.__pthread_internal_list }
%struct.__pthread_internal_list = type { ptr, ptr }
%struct.anon.10 = type { ptr }
%struct.CoQueue = type { %struct.anon.11 }
%struct.anon.11 = type { ptr, ptr }
%struct.BdrvChild = type { ptr, ptr, ptr, i32, ptr, i64, i64, i8, i8, %struct.anon.12, %struct.anon.13 }
%struct.anon.12 = type { ptr, ptr }
%struct.anon.13 = type { ptr, ptr }
%struct.VHDXRegionEntry = type { i64, i64, %struct.anon.16 }
%struct.anon.16 = type { ptr, ptr }

@.str.27 = private unnamed_addr constant [50 x i8] c"VHDX region %lu-%lu overlaps with region %lu-%.lu\00", align 1
@.str.28 = private unnamed_addr constant [44 x i8] c"Could not determinate VHDX image file size.\00", align 1
@.str.29 = private unnamed_addr constant [36 x i8] c"VHDX BAT entry %lu offset overflow.\00", align 1
@.str.30 = private unnamed_addr constant [103 x i8] c"VHDX BAT entry %lu start offset %lu points after end of file (%li). Image has probably been truncated.\00", align 1
@.str.31 = private unnamed_addr constant [101 x i8] c"VHDX BAT entry %lu end offset %lu points after end of file (%li). Image has probably been truncated.\00", align 1

; Function Attrs: nounwind sspstrong uwtable
define internal i32 @vhdx_region_check(ptr noundef %s, i64 noundef %start, i64 noundef %length) #0 {
entry:
  %s.addr = alloca ptr, align 8
  %start.addr = alloca i64, align 8
  %length.addr = alloca i64, align 8
  %ret = alloca i32, align 4
  %end = alloca i64, align 8
  %r = alloca ptr, align 8
  store ptr %s, ptr %s.addr, align 8
  store i64 %start, ptr %start.addr, align 8
  store i64 %length, ptr %length.addr, align 8
  store i32 0, ptr %ret, align 4
  %0 = load i64, ptr %start.addr, align 8
  %1 = load i64, ptr %length.addr, align 8
  %add = add i64 %0, %1
  store i64 %add, ptr %end, align 8
  %2 = load ptr, ptr %s.addr, align 8
  %regions = getelementptr inbounds %struct.BDRVVHDXState, ptr %2, i32 0, i32 36
  %lh_first = getelementptr inbounds %struct.anon.1, ptr %regions, i32 0, i32 0
  %3 = load ptr, ptr %lh_first, align 8
  store ptr %3, ptr %r, align 8
  br label %for.cond

for.cond:                                         ; preds = %for.inc, %entry
  %4 = load ptr, ptr %r, align 8
  %tobool = icmp ne ptr %4, null
  br i1 %tobool, label %for.body, label %for.end

for.body:                                         ; preds = %for.cond
  %5 = load i64, ptr %start.addr, align 8
  %6 = load ptr, ptr %r, align 8
  %end1 = getelementptr inbounds %struct.VHDXRegionEntry, ptr %6, i32 0, i32 1
  %7 = load i64, ptr %end1, align 8
  %cmp = icmp uge i64 %5, %7
  br i1 %cmp, label %if.end, label %lor.lhs.false

lor.lhs.false:                                    ; preds = %for.body
  %8 = load i64, ptr %end, align 8
  %9 = load ptr, ptr %r, align 8
  %start2 = getelementptr inbounds %struct.VHDXRegionEntry, ptr %9, i32 0, i32 0
  %10 = load i64, ptr %start2, align 8
  %cmp3 = icmp ule i64 %8, %10
  br i1 %cmp3, label %if.end, label %if.then

if.then:                                          ; preds = %lor.lhs.false
  %11 = load i64, ptr %start.addr, align 8
  %12 = load i64, ptr %end, align 8
  %13 = load ptr, ptr %r, align 8
  %start4 = getelementptr inbounds %struct.VHDXRegionEntry, ptr %13, i32 0, i32 0
  %14 = load i64, ptr %start4, align 8
  %15 = load ptr, ptr %r, align 8
  %end5 = getelementptr inbounds %struct.VHDXRegionEntry, ptr %15, i32 0, i32 1
  %16 = load i64, ptr %end5, align 8
  call void (ptr, ...) @error_report(ptr noundef @.str.27, i64 noundef %11, i64 noundef %12, i64 noundef %14, i64 noundef %16)
  store i32 -22, ptr %ret, align 4
  br label %exit

if.end:                                           ; preds = %lor.lhs.false, %for.body
  br label %for.inc

for.inc:                                          ; preds = %if.end
  %17 = load ptr, ptr %r, align 8
  %entries = getelementptr inbounds %struct.VHDXRegionEntry, ptr %17, i32 0, i32 2
  %le_next = getelementptr inbounds %struct.anon.16, ptr %entries, i32 0, i32 0
  %18 = load ptr, ptr %le_next, align 8
  store ptr %18, ptr %r, align 8
  br label %for.cond, !llvm.loop !12

for.end:                                          ; preds = %for.cond
  br label %exit

exit:                                             ; preds = %for.end, %if.then
  %19 = load i32, ptr %ret, align 4
  ret i32 %19
}

; Function Attrs: nounwind sspstrong uwtable
define internal i32 @vhdx_check_bat_entries(ptr noundef %bs, ptr noundef %errcnt) #0 {
entry:
  %retval = alloca i32, align 4
  %bs.addr = alloca ptr, align 8
  %errcnt.addr = alloca ptr, align 8
  %s = alloca ptr, align 8
  %image_file_size = alloca i64, align 8
  %payblocks = alloca i64, align 8
  %i = alloca i64, align 8
  %ret = alloca i32, align 4
  %offset = alloca i64, align 8
  %block_length = alloca i32, align 4
  %_a4 = alloca i64, align 8
  %_b5 = alloca i64, align 8
  %tmp = alloca i64, align 8
  %ret2 = alloca i32, align 4
  store ptr %bs, ptr %bs.addr, align 8
  store ptr %errcnt, ptr %errcnt.addr, align 8
  %0 = load ptr, ptr %bs.addr, align 8
  %opaque = getelementptr inbounds %struct.BlockDriverState, ptr %0, i32 0, i32 7
  %1 = load ptr, ptr %opaque, align 8
  store ptr %1, ptr %s, align 8
  %2 = load ptr, ptr %bs.addr, align 8
  %file = getelementptr inbounds %struct.BlockDriverState, ptr %2, i32 0, i32 31
  %3 = load ptr, ptr %file, align 8
  %bs1 = getelementptr inbounds %struct.BdrvChild, ptr %3, i32 0, i32 0
  %4 = load ptr, ptr %bs1, align 8
  %call = call i64 @bdrv_getlength(ptr noundef %4)
  store i64 %call, ptr %image_file_size, align 8
  %5 = load ptr, ptr %s, align 8
  %chunk_ratio = getelementptr inbounds %struct.BDRVVHDXState, ptr %5, i32 0, i32 19
  %6 = load i64, ptr %chunk_ratio, align 8
  store i64 %6, ptr %payblocks, align 8
  store i32 0, ptr %ret, align 4
  %7 = load i64, ptr %image_file_size, align 8
  %cmp = icmp slt i64 %7, 0
  br i1 %cmp, label %if.then, label %if.end

if.then:                                          ; preds = %entry
  call void (ptr, ...) @error_report(ptr noundef @.str.28)
  %8 = load i64, ptr %image_file_size, align 8
  %conv = trunc i64 %8 to i32
  store i32 %conv, ptr %retval, align 4
  br label %return

if.end:                                           ; preds = %entry
  store i64 0, ptr %i, align 8
  br label %for.cond

for.cond:                                         ; preds = %for.inc, %if.end
  %9 = load i64, ptr %i, align 8
  %10 = load ptr, ptr %s, align 8
  %bat_entries = getelementptr inbounds %struct.BDRVVHDXState, ptr %10, i32 0, i32 22
  %11 = load i32, ptr %bat_entries, align 8
  %conv2 = zext i32 %11 to i64
  %cmp3 = icmp ult i64 %9, %conv2
  br i1 %cmp3, label %for.body, label %for.end

for.body:                                         ; preds = %for.cond
  %12 = load ptr, ptr %s, align 8
  %bat = getelementptr inbounds %struct.BDRVVHDXState, ptr %12, i32 0, i32 24
  %13 = load ptr, ptr %bat, align 8
  %14 = load i64, ptr %i, align 8
  %arrayidx = getelementptr i64, ptr %13, i64 %14
  %15 = load i64, ptr %arrayidx, align 8
  %and = and i64 %15, 7
  %cmp5 = icmp eq i64 %and, 6
  br i1 %cmp5, label %if.then7, label %if.end63

if.then7:                                         ; preds = %for.body
  %16 = load ptr, ptr %s, align 8
  %bat8 = getelementptr inbounds %struct.BDRVVHDXState, ptr %16, i32 0, i32 24
  %17 = load ptr, ptr %bat8, align 8
  %18 = load i64, ptr %i, align 8
  %arrayidx9 = getelementptr i64, ptr %17, i64 %18
  %19 = load i64, ptr %arrayidx9, align 8
  %and10 = and i64 %19, -1048576
  store i64 %and10, ptr %offset, align 8
  %20 = load ptr, ptr %s, align 8
  %block_size = getelementptr inbounds %struct.BDRVVHDXState, ptr %20, i32 0, i32 11
  %21 = load i32, ptr %block_size, align 4
  %conv11 = zext i32 %21 to i64
  store i64 %conv11, ptr %_a4, align 8
  %22 = load ptr, ptr %bs.addr, align 8
  %total_sectors = getelementptr inbounds %struct.BlockDriverState, ptr %22, i32 0, i32 37
  %23 = load i64, ptr %total_sectors, align 8
  %mul = mul i64 %23, 512
  %24 = load i64, ptr %i, align 8
  %25 = load ptr, ptr %s, align 8
  %block_size12 = getelementptr inbounds %struct.BDRVVHDXState, ptr %25, i32 0, i32 11
  %26 = load i32, ptr %block_size12, align 4
  %conv13 = zext i32 %26 to i64
  %mul14 = mul i64 %24, %conv13
  %sub = sub i64 %mul, %mul14
  store i64 %sub, ptr %_b5, align 8
  %27 = load i64, ptr %_a4, align 8
  %28 = load i64, ptr %_b5, align 8
  %cmp15 = icmp ult i64 %27, %28
  br i1 %cmp15, label %cond.true, label %cond.false

cond.true:                                        ; preds = %if.then7
  %29 = load i64, ptr %_a4, align 8
  br label %cond.end

cond.false:                                       ; preds = %if.then7
  %30 = load i64, ptr %_b5, align 8
  br label %cond.end

cond.end:                                         ; preds = %cond.false, %cond.true
  %cond = phi i64 [ %29, %cond.true ], [ %30, %cond.false ]
  store i64 %cond, ptr %tmp, align 8
  %31 = load i64, ptr %tmp, align 8
  %conv17 = trunc i64 %31 to i32
  store i32 %conv17, ptr %block_length, align 4
  %32 = load i64, ptr %offset, align 8
  %33 = load ptr, ptr %s, align 8
  %block_size18 = getelementptr inbounds %struct.BDRVVHDXState, ptr %33, i32 0, i32 11
  %34 = load i32, ptr %block_size18, align 4
  %conv19 = zext i32 %34 to i64
  %sub20 = sub i64 9223372036854775807, %conv19
  %cmp21 = icmp ugt i64 %32, %sub20
  br i1 %cmp21, label %if.then23, label %if.end26

if.then23:                                        ; preds = %cond.end
  %35 = load i64, ptr %i, align 8
  call void (ptr, ...) @error_report(ptr noundef @.str.29, i64 noundef %35)
  store i32 -22, ptr %ret, align 4
  %36 = load ptr, ptr %errcnt.addr, align 8
  %tobool = icmp ne ptr %36, null
  br i1 %tobool, label %if.end25, label %if.then24

if.then24:                                        ; preds = %if.then23
  br label %for.end

if.end25:                                         ; preds = %if.then23
  %37 = load ptr, ptr %errcnt.addr, align 8
  %38 = load i32, ptr %37, align 4
  %inc = add i32 %38, 1
  store i32 %inc, ptr %37, align 4
  br label %if.end26

if.end26:                                         ; preds = %if.end25, %cond.end
  %39 = load i64, ptr %offset, align 8
  %40 = load i64, ptr %image_file_size, align 8
  %cmp27 = icmp uge i64 %39, %40
  br i1 %cmp27, label %if.then29, label %if.else

if.then29:                                        ; preds = %if.end26
  %41 = load i64, ptr %i, align 8
  %42 = load i64, ptr %offset, align 8
  %43 = load i64, ptr %image_file_size, align 8
  call void (ptr, ...) @error_report(ptr noundef @.str.30, i64 noundef %41, i64 noundef %42, i64 noundef %43)
  store i32 -22, ptr %ret, align 4
  %44 = load ptr, ptr %errcnt.addr, align 8
  %tobool30 = icmp ne ptr %44, null
  br i1 %tobool30, label %if.end32, label %if.then31

if.then31:                                        ; preds = %if.then29
  br label %for.end

if.end32:                                         ; preds = %if.then29
  %45 = load ptr, ptr %errcnt.addr, align 8
  %46 = load i32, ptr %45, align 4
  %inc33 = add i32 %46, 1
  store i32 %inc33, ptr %45, align 4
  br label %if.end46

if.else:                                          ; preds = %if.end26
  %47 = load i64, ptr %offset, align 8
  %48 = load i32, ptr %block_length, align 4
  %conv34 = zext i32 %48 to i64
  %add = add i64 %47, %conv34
  %49 = load i64, ptr %image_file_size, align 8
  %cmp35 = icmp ugt i64 %add, %49
  br i1 %cmp35, label %if.then37, label %if.end45

if.then37:                                        ; preds = %if.else
  %50 = load i64, ptr %i, align 8
  %51 = load i64, ptr %offset, align 8
  %52 = load i32, ptr %block_length, align 4
  %conv38 = zext i32 %52 to i64
  %add39 = add i64 %51, %conv38
  %sub40 = sub i64 %add39, 1
  %53 = load i64, ptr %image_file_size, align 8
  call void (ptr, ...) @error_report(ptr noundef @.str.31, i64 noundef %50, i64 noundef %sub40, i64 noundef %53)
  store i32 -22, ptr %ret, align 4
  %54 = load ptr, ptr %errcnt.addr, align 8
  %tobool41 = icmp ne ptr %54, null
  br i1 %tobool41, label %if.end43, label %if.then42

if.then42:                                        ; preds = %if.then37
  br label %for.end

if.end43:                                         ; preds = %if.then37
  %55 = load ptr, ptr %errcnt.addr, align 8
  %56 = load i32, ptr %55, align 4
  %inc44 = add i32 %56, 1
  store i32 %inc44, ptr %55, align 4
  br label %if.end45

if.end45:                                         ; preds = %if.end43, %if.else
  br label %if.end46

if.end46:                                         ; preds = %if.end45, %if.end32
  %57 = load i64, ptr %payblocks, align 8
  %dec = add i64 %57, -1
  store i64 %dec, ptr %payblocks, align 8
  %tobool47 = icmp ne i64 %57, 0
  br i1 %tobool47, label %if.then48, label %if.else60

if.then48:                                        ; preds = %if.end46
  %58 = load ptr, ptr %s, align 8
  %59 = load i64, ptr %offset, align 8
  %60 = load ptr, ptr %s, align 8
  %block_size49 = getelementptr inbounds %struct.BDRVVHDXState, ptr %60, i32 0, i32 11
  %61 = load i32, ptr %block_size49, align 4
  %conv50 = zext i32 %61 to i64
  %call51 = call i32 @vhdx_region_check(ptr noundef %58, i64 noundef %59, i64 noundef %conv50)
  store i32 %call51, ptr %ret2, align 4
  %62 = load i32, ptr %ret2, align 4
  %cmp52 = icmp slt i32 %62, 0
  br i1 %cmp52, label %if.then54, label %if.end59

if.then54:                                        ; preds = %if.then48
  store i32 -22, ptr %ret, align 4
  %63 = load ptr, ptr %errcnt.addr, align 8
  %tobool55 = icmp ne ptr %63, null
  br i1 %tobool55, label %if.end57, label %if.then56

if.then56:                                        ; preds = %if.then54
  br label %for.end

if.end57:                                         ; preds = %if.then54
  %64 = load ptr, ptr %errcnt.addr, align 8
  %65 = load i32, ptr %64, align 4
  %inc58 = add i32 %65, 1
  store i32 %inc58, ptr %64, align 4
  br label %if.end59

if.end59:                                         ; preds = %if.end57, %if.then48
  br label %if.end62

if.else60:                                        ; preds = %if.end46
  %66 = load ptr, ptr %s, align 8
  %chunk_ratio61 = getelementptr inbounds %struct.BDRVVHDXState, ptr %66, i32 0, i32 19
  %67 = load i64, ptr %chunk_ratio61, align 8
  store i64 %67, ptr %payblocks, align 8
  br label %if.end62

if.end62:                                         ; preds = %if.else60, %if.end59
  br label %if.end63

if.end63:                                         ; preds = %if.end62, %for.body
  br label %for.inc

for.inc:                                          ; preds = %if.end63
  %68 = load i64, ptr %i, align 8
  %inc64 = add i64 %68, 1
  store i64 %inc64, ptr %i, align 8
  br label %for.cond, !llvm.loop !11

for.end:                                          ; preds = %if.then56, %if.then42, %if.then31, %if.then24, %for.cond
  %69 = load i32, ptr %ret, align 4
  store i32 %69, ptr %retval, align 4
  br label %return

return:                                           ; preds = %for.end, %if.then
  %70 = load i32, ptr %retval, align 4
  ret i32 %70
}