; Function Attrs: nounwind sspstrong uwtable
define internal i32 @vhdx_check_bat_entries(ptr noundef readonly captures(none) %bs, ptr noundef %errcnt) #0 {
entry:
  %opaque = getelementptr inbounds nuw i8, ptr %bs, i64 24
  %0 = load ptr, ptr %opaque, align 8
  %file = getelementptr inbounds nuw i8, ptr %bs, i64 16840
  %1 = load ptr, ptr %file, align 8
  %2 = load ptr, ptr %1, align 8
  %call = tail call i64 @bdrv_getlength(ptr noundef %2) #17
  %chunk_ratio = getelementptr inbounds nuw i8, ptr %0, i64 424
  %cmp = icmp slt i64 %call, 0
  br i1 %cmp, label %if.then, label %if.end

if.then:                                          ; preds = %entry
  tail call void (ptr, ...) @error_report(ptr noundef nonnull @.str.28) #17
  %conv = trunc i64 %call to i32
  br label %return

if.end:                                           ; preds = %entry
  %bat_entries = getelementptr inbounds nuw i8, ptr %0, i64 440
  %3 = load i32, ptr %bat_entries, align 8
  %cmp344.not = icmp eq i32 %3, 0
  br i1 %cmp344.not, label %return, label %for.body.lr.ph

for.body.lr.ph:                                   ; preds = %if.end
  %4 = load i64, ptr %chunk_ratio, align 8
  %bat = getelementptr inbounds nuw i8, ptr %0, i64 448
  %block_size = getelementptr inbounds nuw i8, ptr %0, i64 388
  %total_sectors = getelementptr inbounds nuw i8, ptr %bs, i64 16888
  %tobool.not = icmp eq ptr %errcnt, null
  %regions.i = getelementptr inbounds nuw i8, ptr %0, i64 592
  br label %for.body

for.body:                                         ; preds = %for.body.lr.ph, %for.inc
  %payblocks.048 = phi i64 [ %4, %for.body.lr.ph ], [ %payblocks.1, %for.inc ]
  %i.046 = phi i64 [ 0, %for.body.lr.ph ], [ %inc64, %for.inc ]
  %ret.045 = phi i32 [ 0, %for.body.lr.ph ], [ %ret.4, %for.inc ]
  %5 = load ptr, ptr %bat, align 8
  %arrayidx = getelementptr i64, ptr %5, i64 %i.046
  %6 = load i64, ptr %arrayidx, align 8
  %and = and i64 %6, 7
  %cmp5 = icmp eq i64 %and, 6
  br i1 %cmp5, label %if.then7, label %for.inc

if.then7:                                         ; preds = %for.body
  %and10 = and i64 %6, -1048576
  %7 = load i32, ptr %block_size, align 4
  %conv11 = zext i32 %7 to i64
  %8 = load i64, ptr %total_sectors, align 8
  %mul = shl i64 %8, 9
  %mul14 = mul nuw i64 %i.046, %conv11
  %sub = sub i64 %mul, %mul14
  %cond = tail call i64 @llvm.umin.i64(i64 %sub, i64 %conv11)
  %sub20 = xor i64 %conv11, 9223372036854775807
  %cmp21 = icmp ugt i64 %and10, %sub20
  br i1 %cmp21, label %if.then23, label %if.end26

if.then23:                                        ; preds = %if.then7
  tail call void (ptr, ...) @error_report(ptr noundef nonnull @.str.29, i64 noundef %i.046) #17
  br i1 %tobool.not, label %return, label %if.end26.thread

if.end26:                                         ; preds = %if.then7
  %cmp27.not = icmp ult i64 %and10, %call
  br i1 %cmp27.not, label %if.else, label %if.then29

if.end26.thread:                                  ; preds = %if.then23
  %9 = load i32, ptr %errcnt, align 4
  %inc = add i32 %9, 1
  store i32 %inc, ptr %errcnt, align 4
  %cmp27.not56 = icmp ult i64 %and10, %call
  br i1 %cmp27.not56, label %if.else, label %if.then29.thread

if.then29.thread:                                 ; preds = %if.end26.thread
  tail call void (ptr, ...) @error_report(ptr noundef nonnull @.str.30, i64 noundef %i.046, i64 noundef %and10, i64 noundef %call) #17
  br label %if.end46.sink.split

if.then29:                                        ; preds = %if.end26
  tail call void (ptr, ...) @error_report(ptr noundef nonnull @.str.30, i64 noundef %i.046, i64 noundef %and10, i64 noundef %call) #17
  br i1 %tobool.not, label %return, label %if.end46.sink.split

if.else:                                          ; preds = %if.end26.thread, %if.end26
  %ret.257 = phi i32 [ -22, %if.end26.thread ], [ %ret.045, %if.end26 ]
  %add = add nuw i64 %cond, %and10
  %cmp35 = icmp ugt i64 %add, %call
  br i1 %cmp35, label %if.then37, label %if.end46

if.then37:                                        ; preds = %if.else
  %sub40 = add i64 %add, -1
  tail call void (ptr, ...) @error_report(ptr noundef nonnull @.str.31, i64 noundef %i.046, i64 noundef %sub40, i64 noundef %call) #17
  br i1 %tobool.not, label %return, label %if.end46.sink.split

if.end46.sink.split:                              ; preds = %if.then37, %if.then29, %if.then29.thread
  %10 = load i32, ptr %errcnt, align 4
  %inc44 = add i32 %10, 1
  store i32 %inc44, ptr %errcnt, align 4
  br label %if.end46

if.end46:                                         ; preds = %if.end46.sink.split, %if.else
  %ret.3 = phi i32 [ %ret.257, %if.else ], [ -22, %if.end46.sink.split ]
  %dec = add i64 %payblocks.048, -1
  %tobool47.not = icmp eq i64 %payblocks.048, 0
  br i1 %tobool47.not, label %if.else60, label %if.then48

if.then48:                                        ; preds = %if.end46
  %11 = load i32, ptr %block_size, align 4
  %conv50 = zext i32 %11 to i64
  %add.i = add i64 %and10, %conv50
  %r.011.i = load ptr, ptr %regions.i, align 8
  %tobool.not12.i = icmp eq ptr %r.011.i, null
  br i1 %tobool.not12.i, label %for.inc, label %for.body.i

for.body.i:                                       ; preds = %if.then48, %for.inc.i
  %r.013.i = phi ptr [ %r.0.i, %for.inc.i ], [ %r.011.i, %if.then48 ]
  %end1.i = getelementptr inbounds nuw i8, ptr %r.013.i, i64 8
  %12 = load i64, ptr %end1.i, align 8
  %cmp.not.i = icmp ult i64 %and10, %12
  br i1 %cmp.not.i, label %lor.lhs.false.i, label %for.inc.i

lor.lhs.false.i:                                  ; preds = %for.body.i
  %13 = load i64, ptr %r.013.i, align 8
  %cmp3.not.i = icmp ugt i64 %add.i, %13
  br i1 %cmp3.not.i, label %if.then54, label %for.inc.i

for.inc.i:                                        ; preds = %lor.lhs.false.i, %for.body.i
  %entries.i = getelementptr inbounds nuw i8, ptr %r.013.i, i64 16
  %r.0.i = load ptr, ptr %entries.i, align 8
  %tobool.not.i = icmp eq ptr %r.0.i, null
  br i1 %tobool.not.i, label %for.inc, label %for.body.i, !llvm.loop !5

if.then54:                                        ; preds = %lor.lhs.false.i
  tail call void (ptr, ...) @error_report(ptr noundef nonnull @.str.27, i64 noundef %and10, i64 noundef %add.i, i64 noundef %13, i64 noundef %12) #17
  br i1 %tobool.not, label %return, label %if.end57

if.end57:                                         ; preds = %if.then54
  %14 = load i32, ptr %errcnt, align 4
  %inc58 = add i32 %14, 1
  store i32 %inc58, ptr %errcnt, align 4
  br label %for.inc

if.else60:                                        ; preds = %if.end46
  %15 = load i64, ptr %chunk_ratio, align 8
  br label %for.inc

for.inc:                                          ; preds = %for.inc.i, %if.then48, %for.body, %if.end57, %if.else60
  %ret.4 = phi i32 [ -22, %if.end57 ], [ %ret.3, %if.else60 ], [ %ret.045, %for.body ], [ %ret.3, %if.then48 ], [ %ret.3, %for.inc.i ]
  %payblocks.1 = phi i64 [ %dec, %if.end57 ], [ %15, %if.else60 ], [ %payblocks.048, %for.body ], [ %dec, %if.then48 ], [ %dec, %for.inc.i ]
  %inc64 = add nuw nsw i64 %i.046, 1
  %16 = load i32, ptr %bat_entries, align 8
  %conv2 = zext i32 %16 to i64
  %cmp3 = icmp samesign ult i64 %inc64, %conv2
  br i1 %cmp3, label %for.body, label %return, !llvm.loop !11

return:                                           ; preds = %if.then54, %if.then37, %if.then29, %if.then23, %for.inc, %if.end, %if.then
  %retval.0 = phi i32 [ %conv, %if.then ], [ 0, %if.end ], [ -22, %if.then54 ], [ -22, %if.then37 ], [ -22, %if.then29 ], [ -22, %if.then23 ], [ %ret.4, %for.inc ]
  ret i32 %retval.0
}